target datalayout = "e-m:e-p270:32:32-p271:32:32-p272:64:64-i64:64-i128:128-f80:128-n8:16:32:64-S128"
target triple = "x86_64-pc-linux-gnu"

%struct._generic_SUNNonlinearSolver = type { ptr, ptr, ptr }
%struct._generic_SUNNonlinearSolver_Ops = type { ptr, ptr, ptr, ptr, ptr, ptr, ptr, ptr, ptr, ptr, ptr, ptr, ptr }
%struct.IDAMemRec = type { ptr, double, ptr, ptr, i32, double, double, ptr, i32, i32, ptr, ptr, i32, i32, [6 x ptr], [6 x double], [6 x double], [6 x double], [6 x double], [6 x double], ptr, ptr, ptr, ptr, ptr, ptr, ptr, ptr, ptr, ptr, ptr, ptr, ptr, ptr, ptr, ptr, ptr, double, ptr, ptr, i32, i32, i32, i32, i32, i32, i32, i32, double, double, double, i32, double, i32, i32, i32, i32, i32, double, double, double, double, double, double, double, double, double, double, double, double, double, double, double, double, i32, i32, i32, i32, i64, double, double, double, double, double, double, double, double, double, i64, i64, i64, i64, i64, i64, i64, i64, i64, i64, i64, double, i32, i32, i32, i32, i32, ptr, i32, ptr, ptr, ptr, ptr, ptr, ptr, ptr, double, i32, ptr, i32, ptr, ptr, double, double, double, ptr, ptr, ptr, double, double, i32, i32, i64, ptr, i32, [6 x double], [5 x double], [6 x ptr], [6 x ptr] }

@__func__.IDASetNonlinearSolver = private unnamed_addr constant [22 x i8] c"IDASetNonlinearSolver\00", align 1
@.str = private unnamed_addr constant [113 x i8] c"generated/home/dtcxzyw/WorkSpace/Projects/compilers/llvm-opt-benchmark/bench/sundials/sundials/src/ida/ida_nls.c\00", align 1
@.str.1 = private unnamed_addr constant [24 x i8] c"ida_mem = NULL illegal.\00", align 1
@.str.2 = private unnamed_addr constant [21 x i8] c"NLS must be non-NULL\00", align 1
@.str.3 = private unnamed_addr constant [41 x i8] c"NLS does not support required operations\00", align 1
@.str.4 = private unnamed_addr constant [45 x i8] c"NLS type must be SUNNONLINEARSOLVER_ROOTFIND\00", align 1
@.str.5 = private unnamed_addr constant [41 x i8] c"Setting nonlinear system function failed\00", align 1
@.str.6 = private unnamed_addr constant [41 x i8] c"Setting convergence test function failed\00", align 1
@.str.7 = private unnamed_addr constant [54 x i8] c"Setting maximum number of nonlinear iterations failed\00", align 1
@.str.8 = private unnamed_addr constant [34 x i8] c"The DAE residual function is NULL\00", align 1

; Function Attrs: nounwind uwtable
define i32 @IDASetNonlinearSolver(ptr noundef %0, ptr noundef %1) #0 {
  %3 = alloca i32, align 4
  %4 = alloca ptr, align 8
  %5 = alloca ptr, align 8
  %6 = alloca ptr, align 8
  %7 = alloca i32, align 4
  %8 = alloca i32, align 4
  store ptr %0, ptr %4, align 8, !tbaa !3
  store ptr %1, ptr %5, align 8, !tbaa !7
  call void @llvm.lifetime.start.p0(i64 8, ptr %6) #3
  call void @llvm.lifetime.start.p0(i64 4, ptr %7) #3
  %9 = load ptr, ptr %4, align 8, !tbaa !3
  %10 = icmp eq ptr %9, null
  br i1 %10, label %11, label %12

11:                                               ; preds = %2
  call void (ptr, i32, i32, ptr, ptr, ptr, ...) @IDAProcessError(ptr noundef null, i32 noundef -20, i32 noundef 49, ptr noundef @__func__.IDASetNonlinearSolver, ptr noundef @.str, ptr noundef @.str.1)
  store i32 -20, ptr %3, align 4
  store i32 1, ptr %8, align 4
  br label %107

12:                                               ; preds = %2
  %13 = load ptr, ptr %4, align 8, !tbaa !3
  store ptr %13, ptr %6, align 8, !tbaa !9
  %14 = load ptr, ptr %5, align 8, !tbaa !7
  %15 = icmp eq ptr %14, null
  br i1 %15, label %16, label %17

16:                                               ; preds = %12
  call void (ptr, i32, i32, ptr, ptr, ptr, ...) @IDAProcessError(ptr noundef null, i32 noundef -22, i32 noundef 57, ptr noundef @__func__.IDASetNonlinearSolver, ptr noundef @.str, ptr noundef @.str.2)
  store i32 -22, ptr %3, align 4
  store i32 1, ptr %8, align 4
  br label %107

17:                                               ; preds = %12
  %18 = load ptr, ptr %5, align 8, !tbaa !7
  %19 = getelementptr inbounds nuw %struct._generic_SUNNonlinearSolver, ptr %18, i32 0, i32 1
  %20 = load ptr, ptr %19, align 8, !tbaa !11
  %21 = getelementptr inbounds nuw %struct._generic_SUNNonlinearSolver_Ops, ptr %20, i32 0, i32 0
  %22 = load ptr, ptr %21, align 8, !tbaa !15
  %23 = icmp eq ptr %22, null
  br i1 %23, label %38, label %24

24:                                               ; preds = %17
  %25 = load ptr, ptr %5, align 8, !tbaa !7
  %26 = getelementptr inbounds nuw %struct._generic_SUNNonlinearSolver, ptr %25, i32 0, i32 1
  %27 = load ptr, ptr %26, align 8, !tbaa !11
  %28 = getelementptr inbounds nuw %struct._generic_SUNNonlinearSolver_Ops, ptr %27, i32 0, i32 3
  %29 = load ptr, ptr %28, align 8, !tbaa !17
  %30 = icmp eq ptr %29, null
  br i1 %30, label %38, label %31

31:                                               ; preds = %24
  %32 = load ptr, ptr %5, align 8, !tbaa !7
  %33 = getelementptr inbounds nuw %struct._generic_SUNNonlinearSolver, ptr %32, i32 0, i32 1
  %34 = load ptr, ptr %33, align 8, !tbaa !11
  %35 = getelementptr inbounds nuw %struct._generic_SUNNonlinearSolver_Ops, ptr %34, i32 0, i32 5
  %36 = load ptr, ptr %35, align 8, !tbaa !18
  %37 = icmp eq ptr %36, null
  br i1 %37, label %38, label %40

38:                                               ; preds = %31, %24, %17
  %39 = load ptr, ptr %6, align 8, !tbaa !9
  call void (ptr, i32, i32, ptr, ptr, ptr, ...) @IDAProcessError(ptr noundef %39, i32 noundef -22, i32 noundef 66, ptr noundef @__func__.IDASetNonlinearSolver, ptr noundef @.str, ptr noundef @.str.3)
  store i32 -22, ptr %3, align 4
  store i32 1, ptr %8, align 4
  br label %107

40:                                               ; preds = %31
  %41 = load ptr, ptr %5, align 8, !tbaa !7
  %42 = call i32 @SUNNonlinSolGetType(ptr noundef %41)
  %43 = icmp ne i32 %42, 0
  br i1 %43, label %44, label %46

44:                                               ; preds = %40
  %45 = load ptr, ptr %6, align 8, !tbaa !9
  call void (ptr, i32, i32, ptr, ptr, ptr, ...) @IDAProcessError(ptr noundef %45, i32 noundef -22, i32 noundef 74, ptr noundef @__func__.IDASetNonlinearSolver, ptr noundef @.str, ptr noundef @.str.4)
  store i32 -22, ptr %3, align 4
  store i32 1, ptr %8, align 4
  br label %107

46:                                               ; preds = %40
  %47 = load ptr, ptr %6, align 8, !tbaa !9
  %48 = getelementptr inbounds nuw %struct.IDAMemRec, ptr %47, i32 0, i32 105
  %49 = load ptr, ptr %48, align 8, !tbaa !19
  %50 = icmp ne ptr %49, null
  br i1 %50, label %51, label %61

51:                                               ; preds = %46
  %52 = load ptr, ptr %6, align 8, !tbaa !9
  %53 = getelementptr inbounds nuw %struct.IDAMemRec, ptr %52, i32 0, i32 106
  %54 = load i32, ptr %53, align 8, !tbaa !27
  %55 = icmp ne i32 %54, 0
  br i1 %55, label %56, label %61

56:                                               ; preds = %51
  %57 = load ptr, ptr %6, align 8, !tbaa !9
  %58 = getelementptr inbounds nuw %struct.IDAMemRec, ptr %57, i32 0, i32 105
  %59 = load ptr, ptr %58, align 8, !tbaa !19
  %60 = call i32 @SUNNonlinSolFree(ptr noundef %59)
  store i32 %60, ptr %7, align 4, !tbaa !28
  br label %61

61:                                               ; preds = %56, %51, %46
  %62 = load ptr, ptr %5, align 8, !tbaa !7
  %63 = load ptr, ptr %6, align 8, !tbaa !9
  %64 = getelementptr inbounds nuw %struct.IDAMemRec, ptr %63, i32 0, i32 105
  store ptr %62, ptr %64, align 8, !tbaa !19
  %65 = load ptr, ptr %6, align 8, !tbaa !9
  %66 = getelementptr inbounds nuw %struct.IDAMemRec, ptr %65, i32 0, i32 106
  store i32 0, ptr %66, align 8, !tbaa !27
  %67 = load ptr, ptr %6, align 8, !tbaa !9
  %68 = getelementptr inbounds nuw %struct.IDAMemRec, ptr %67, i32 0, i32 105
  %69 = load ptr, ptr %68, align 8, !tbaa !19
  %70 = call i32 @SUNNonlinSolSetSysFn(ptr noundef %69, ptr noundef @idaNlsResidual)
  store i32 %70, ptr %7, align 4, !tbaa !28
  %71 = load i32, ptr %7, align 4, !tbaa !28
  %72 = icmp ne i32 %71, 0
  br i1 %72, label %73, label %75

73:                                               ; preds = %61
  %74 = load ptr, ptr %6, align 8, !tbaa !9
  call void (ptr, i32, i32, ptr, ptr, ptr, ...) @IDAProcessError(ptr noundef %74, i32 noundef -22, i32 noundef 96, ptr noundef @__func__.IDASetNonlinearSolver, ptr noundef @.str, ptr noundef @.str.5)
  store i32 -22, ptr %3, align 4
  store i32 1, ptr %8, align 4
  br label %107

75:                                               ; preds = %61
  %76 = load ptr, ptr %6, align 8, !tbaa !9
  %77 = getelementptr inbounds nuw %struct.IDAMemRec, ptr %76, i32 0, i32 105
  %78 = load ptr, ptr %77, align 8, !tbaa !19
  %79 = load ptr, ptr %4, align 8, !tbaa !3
  %80 = call i32 @SUNNonlinSolSetConvTestFn(ptr noundef %78, ptr noundef @idaNlsConvTest, ptr noundef %79)
  store i32 %80, ptr %7, align 4, !tbaa !28
  %81 = load i32, ptr %7, align 4, !tbaa !28
  %82 = icmp ne i32 %81, 0
  br i1 %82, label %83, label %85

83:                                               ; preds = %75
  %84 = load ptr, ptr %6, align 8, !tbaa !9
  call void (ptr, i32, i32, ptr, ptr, ptr, ...) @IDAProcessError(ptr noundef %84, i32 noundef -22, i32 noundef 105, ptr noundef @__func__.IDASetNonlinearSolver, ptr noundef @.str, ptr noundef @.str.6)
  store i32 -22, ptr %3, align 4
  store i32 1, ptr %8, align 4
  br label %107

85:                                               ; preds = %75
  %86 = load ptr, ptr %6, align 8, !tbaa !9
  %87 = getelementptr inbounds nuw %struct.IDAMemRec, ptr %86, i32 0, i32 105
  %88 = load ptr, ptr %87, align 8, !tbaa !19
  %89 = call i32 @SUNNonlinSolSetMaxIters(ptr noundef %88, i32 noundef 4)
  store i32 %89, ptr %7, align 4, !tbaa !28
  %90 = load i32, ptr %7, align 4, !tbaa !28
  %91 = icmp ne i32 %90, 0
  br i1 %91, label %92, label %94

92:                                               ; preds = %85
  %93 = load ptr, ptr %6, align 8, !tbaa !9
  call void (ptr, i32, i32, ptr, ptr, ptr, ...) @IDAProcessError(ptr noundef %93, i32 noundef -22, i32 noundef 114, ptr noundef @__func__.IDASetNonlinearSolver, ptr noundef @.str, ptr noundef @.str.7)
  store i32 -22, ptr %3, align 4
  store i32 1, ptr %8, align 4
  br label %107

94:                                               ; preds = %85
  %95 = load ptr, ptr %6, align 8, !tbaa !9
  %96 = getelementptr inbounds nuw %struct.IDAMemRec, ptr %95, i32 0, i32 2
  %97 = load ptr, ptr %96, align 8, !tbaa !29
  %98 = icmp ne ptr %97, null
  br i1 %98, label %101, label %99

99:                                               ; preds = %94
  %100 = load ptr, ptr %6, align 8, !tbaa !9
  call void (ptr, i32, i32, ptr, ptr, ptr, ...) @IDAProcessError(ptr noundef %100, i32 noundef -22, i32 noundef 122, ptr noundef @__func__.IDASetNonlinearSolver, ptr noundef @.str, ptr noundef @.str.8)
  store i32 -22, ptr %3, align 4
  store i32 1, ptr %8, align 4
  br label %107

101:                                              ; preds = %94
  %102 = load ptr, ptr %6, align 8, !tbaa !9
  %103 = getelementptr inbounds nuw %struct.IDAMemRec, ptr %102, i32 0, i32 2
  %104 = load ptr, ptr %103, align 8, !tbaa !29
  %105 = load ptr, ptr %6, align 8, !tbaa !9
  %106 = getelementptr inbounds nuw %struct.IDAMemRec, ptr %105, i32 0, i32 107
  store ptr %104, ptr %106, align 8, !tbaa !30
  store i32 0, ptr %3, align 4
  store i32 1, ptr %8, align 4
  br label %107

107:                                              ; preds = %101, %99, %92, %83, %73, %44, %38, %16, %11
  call void @llvm.lifetime.end.p0(i64 4, ptr %7) #3
  call void @llvm.lifetime.end.p0(i64 8, ptr %6) #3
  %108 = load i32, ptr %3, align 4
  ret i32 %108
}