; Function Attrs: nounwind uwtable
define range(i32 -22, 1) i32 @IDASetNonlinearSolver(ptr noundef %0, ptr noundef %1) local_unnamed_addr #0 {
  %3 = icmp eq ptr %0, null
  br i1 %3, label %4, label %5

4:                                                ; preds = %2
  tail call void (ptr, i32, i32, ptr, ptr, ptr, ...) @IDAProcessError(ptr noundef null, i32 noundef -20, i32 noundef 49, ptr noundef nonnull @__func__.IDASetNonlinearSolver, ptr noundef nonnull @.str, ptr noundef nonnull @.str.1) #3
  br label %51

5:                                                ; preds = %2
  %6 = icmp eq ptr %1, null
  br i1 %6, label %7, label %8

7:                                                ; preds = %5
  tail call void (ptr, i32, i32, ptr, ptr, ptr, ...) @IDAProcessError(ptr noundef null, i32 noundef -22, i32 noundef 57, ptr noundef nonnull @__func__.IDASetNonlinearSolver, ptr noundef nonnull @.str, ptr noundef nonnull @.str.2) #3
  br label %51

8:                                                ; preds = %5
  %9 = getelementptr inbounds nuw i8, ptr %1, i64 8
  %10 = load ptr, ptr %9, align 8, !tbaa !3
  %11 = load ptr, ptr %10, align 8, !tbaa !10
  %12 = icmp eq ptr %11, null
  br i1 %12, label %21, label %13

13:                                               ; preds = %8
  %14 = getelementptr inbounds nuw i8, ptr %10, i64 24
  %15 = load ptr, ptr %14, align 8, !tbaa !12
  %16 = icmp eq ptr %15, null
  br i1 %16, label %21, label %17

17:                                               ; preds = %13
  %18 = getelementptr inbounds nuw i8, ptr %10, i64 40
  %19 = load ptr, ptr %18, align 8, !tbaa !13
  %20 = icmp eq ptr %19, null
  br i1 %20, label %21, label %22

21:                                               ; preds = %17, %13, %8
  tail call void (ptr, i32, i32, ptr, ptr, ptr, ...) @IDAProcessError(ptr noundef nonnull %0, i32 noundef -22, i32 noundef 66, ptr noundef nonnull @__func__.IDASetNonlinearSolver, ptr noundef nonnull @.str, ptr noundef nonnull @.str.3) #3
  br label %51

22:                                               ; preds = %17
  %23 = tail call i32 @SUNNonlinSolGetType(ptr noundef nonnull %1) #3
  %.not = icmp eq i32 %23, 0
  br i1 %.not, label %25, label %24

24:                                               ; preds = %22
  tail call void (ptr, i32, i32, ptr, ptr, ptr, ...) @IDAProcessError(ptr noundef nonnull %0, i32 noundef -22, i32 noundef 74, ptr noundef nonnull @__func__.IDASetNonlinearSolver, ptr noundef nonnull @.str, ptr noundef nonnull @.str.4) #3
  br label %51

25:                                               ; preds = %22
  %26 = getelementptr inbounds nuw i8, ptr %0, i64 984
  %27 = load ptr, ptr %26, align 8, !tbaa !14
  %.not33 = icmp eq ptr %27, null
  br i1 %.not33, label %33, label %28

28:                                               ; preds = %25
  %29 = getelementptr inbounds nuw i8, ptr %0, i64 992
  %30 = load i32, ptr %29, align 8, !tbaa !23
  %.not34 = icmp eq i32 %30, 0
  br i1 %.not34, label %33, label %31

31:                                               ; preds = %28
  %32 = tail call i32 @SUNNonlinSolFree(ptr noundef nonnull %27) #3
  br label %33

33:                                               ; preds = %31, %28, %25
  store ptr %1, ptr %26, align 8, !tbaa !14
  %34 = getelementptr inbounds nuw i8, ptr %0, i64 992
  store i32 0, ptr %34, align 8, !tbaa !23
  %35 = tail call i32 @SUNNonlinSolSetSysFn(ptr noundef nonnull %1, ptr noundef nonnull @idaNlsResidual) #3
  %.not35 = icmp eq i32 %35, 0
  br i1 %.not35, label %37, label %36

36:                                               ; preds = %33
  tail call void (ptr, i32, i32, ptr, ptr, ptr, ...) @IDAProcessError(ptr noundef nonnull %0, i32 noundef -22, i32 noundef 96, ptr noundef nonnull @__func__.IDASetNonlinearSolver, ptr noundef nonnull @.str, ptr noundef nonnull @.str.5) #3
  br label %51

37:                                               ; preds = %33
  %38 = load ptr, ptr %26, align 8, !tbaa !14
  %39 = tail call i32 @SUNNonlinSolSetConvTestFn(ptr noundef %38, ptr noundef nonnull @idaNlsConvTest, ptr noundef nonnull %0) #3
  %.not36 = icmp eq i32 %39, 0
  br i1 %.not36, label %41, label %40

40:                                               ; preds = %37
  tail call void (ptr, i32, i32, ptr, ptr, ptr, ...) @IDAProcessError(ptr noundef nonnull %0, i32 noundef -22, i32 noundef 105, ptr noundef nonnull @__func__.IDASetNonlinearSolver, ptr noundef nonnull @.str, ptr noundef nonnull @.str.6) #3
  br label %51

41:                                               ; preds = %37
  %42 = load ptr, ptr %26, align 8, !tbaa !14
  %43 = tail call i32 @SUNNonlinSolSetMaxIters(ptr noundef %42, i32 noundef 4) #3
  %.not37 = icmp eq i32 %43, 0
  br i1 %.not37, label %45, label %44

44:                                               ; preds = %41
  tail call void (ptr, i32, i32, ptr, ptr, ptr, ...) @IDAProcessError(ptr noundef nonnull %0, i32 noundef -22, i32 noundef 114, ptr noundef nonnull @__func__.IDASetNonlinearSolver, ptr noundef nonnull @.str, ptr noundef nonnull @.str.7) #3
  br label %51

45:                                               ; preds = %41
  %46 = getelementptr inbounds nuw i8, ptr %0, i64 16
  %47 = load ptr, ptr %46, align 8, !tbaa !24
  %.not38 = icmp eq ptr %47, null
  br i1 %.not38, label %48, label %49

48:                                               ; preds = %45
  tail call void (ptr, i32, i32, ptr, ptr, ptr, ...) @IDAProcessError(ptr noundef nonnull %0, i32 noundef -22, i32 noundef 122, ptr noundef nonnull @__func__.IDASetNonlinearSolver, ptr noundef nonnull @.str, ptr noundef nonnull @.str.8) #3
  br label %51

49:                                               ; preds = %45
  %50 = getelementptr inbounds nuw i8, ptr %0, i64 1000
  store ptr %47, ptr %50, align 8, !tbaa !25
  br label %51

51:                                               ; preds = %49, %48, %44, %40, %36, %24, %21, %7, %4
  %.0 = phi i32 [ -20, %4 ], [ -22, %7 ], [ -22, %21 ], [ -22, %24 ], [ -22, %36 ], [ -22, %40 ], [ -22, %44 ], [ 0, %49 ], [ -22, %48 ]
  ret i32 %.0
}